target datalayout = "e-m:e-p270:32:32-p271:32:32-p272:64:64-i64:64-i128:128-f80:128-n8:16:32:64-S128"
target triple = "x86_64-pc-linux-gnu"

; Function Attrs: nounwind uwtable
define ptr @Abc_NtkIvyRewrite(ptr noundef %0, i32 noundef %1, i32 noundef %2, i32 noundef %3) #0 {
  %5 = alloca ptr, align 8
  %6 = alloca ptr, align 8
  %7 = alloca i32, align 4
  %8 = alloca i32, align 4
  %9 = alloca i32, align 4
  %10 = alloca ptr, align 8
  %11 = alloca ptr, align 8
  %12 = alloca i32, align 4
  store ptr %0, ptr %6, align 8, !tbaa !3
  store i32 %1, ptr %7, align 4, !tbaa !8
  store i32 %2, ptr %8, align 4, !tbaa !8
  store i32 %3, ptr %9, align 4, !tbaa !8
  call void @llvm.lifetime.start.p0(i64 8, ptr %10) #11
  call void @llvm.lifetime.start.p0(i64 8, ptr %11) #11
  %13 = load ptr, ptr %6, align 8, !tbaa !3
  %14 = call ptr @Abc_NtkIvyBefore(ptr noundef %13, i32 noundef 0, i32 noundef 0)
  store ptr %14, ptr %11, align 8, !tbaa !10
  %15 = load ptr, ptr %11, align 8, !tbaa !10
  %16 = icmp eq ptr %15, null
  br i1 %16, label %17, label %18

17:                                               ; preds = %4
  store ptr null, ptr %5, align 8
  store i32 1, ptr %12, align 4
  br label %29

18:                                               ; preds = %4
  %19 = load ptr, ptr %11, align 8, !tbaa !10
  %20 = load i32, ptr %7, align 4, !tbaa !8
  %21 = load i32, ptr %8, align 4, !tbaa !8
  %22 = load i32, ptr %9, align 4, !tbaa !8
  %23 = call i32 @Ivy_ManRewritePre(ptr noundef %19, i32 noundef %20, i32 noundef %21, i32 noundef %22)
  %24 = load ptr, ptr %6, align 8, !tbaa !3
  %25 = load ptr, ptr %11, align 8, !tbaa !10
  %26 = call ptr @Abc_NtkIvyAfter(ptr noundef %24, ptr noundef %25, i32 noundef 0, i32 noundef 0)
  store ptr %26, ptr %10, align 8, !tbaa !3
  %27 = load ptr, ptr %11, align 8, !tbaa !10
  call void @Ivy_ManStop(ptr noundef %27)
  %28 = load ptr, ptr %10, align 8, !tbaa !3
  store ptr %28, ptr %5, align 8
  store i32 1, ptr %12, align 4
  br label %29

29:                                               ; preds = %18, %17
  call void @llvm.lifetime.end.p0(i64 8, ptr %11) #11
  call void @llvm.lifetime.end.p0(i64 8, ptr %10) #11
  %30 = load ptr, ptr %5, align 8
  ret ptr %30
}