; Function Attrs: nounwind uwtable
define noundef ptr @Abc_NtkIvyRewrite(ptr noundef %0, i32 noundef %1, i32 noundef %2, i32 noundef %3) local_unnamed_addr #0 {
  %5 = tail call ptr @Abc_NtkIvyBefore(ptr noundef %0, i32 noundef 0, i32 noundef 0)
  %6 = icmp eq ptr %5, null
  br i1 %6, label %10, label %7

7:                                                ; preds = %4
  %8 = tail call i32 @Ivy_ManRewritePre(ptr noundef nonnull %5, i32 noundef %1, i32 noundef %2, i32 noundef %3) #15
  %9 = tail call ptr @Abc_NtkIvyAfter(ptr noundef %0, ptr noundef nonnull %5, i32 noundef 0, i32 noundef 0)
  tail call void @Ivy_ManStop(ptr noundef nonnull %5) #15
  br label %10

10:                                               ; preds = %4, %7
  %.0 = phi ptr [ %9, %7 ], [ null, %4 ]
  ret ptr %.0
}